; Function Attrs: mustprogress uwtable
define void @_ZN5Ipopt17RegisteredOptions16AddStringOption2ERKNSt7__cxx1112basic_stringIcSt11char_traitsIcESaIcEEES8_S8_S8_S8_S8_S8_S8_b(ptr noundef nonnull align 8 dereferenceable(128) %0, ptr noundef nonnull align 8 dereferenceable(32) %1, ptr noundef nonnull align 8 dereferenceable(32) %2, ptr noundef nonnull align 8 dereferenceable(32) %3, ptr noundef nonnull align 8 dereferenceable(32) %4, ptr noundef nonnull align 8 dereferenceable(32) %5, ptr noundef nonnull align 8 dereferenceable(32) %6, ptr noundef nonnull align 8 dereferenceable(32) %7, ptr noundef nonnull align 8 dereferenceable(32) %8, i1 noundef zeroext %9) unnamed_addr #3 align 2 personality ptr @__gxx_personality_v0 {
  %11 = alloca %"class.Ipopt::SmartPtr.21", align 8
  %12 = alloca i32, align 4
  call void @llvm.lifetime.start.p0(i64 8, ptr nonnull %11) #23
  %13 = tail call noalias noundef nonnull dereferenceable(224) ptr @_Znwm(i64 noundef 224) #27
  %14 = getelementptr inbounds nuw i8, ptr %0, i64 120
  %15 = getelementptr inbounds nuw i8, ptr %0, i64 112
  %16 = load i32, ptr %15, align 8, !tbaa !86
  %17 = add nsw i32 %16, 1
  store i32 %17, ptr %15, align 8, !tbaa !86
  invoke void @_ZN5Ipopt16RegisteredOptionC2ERKNSt7__cxx1112basic_stringIcSt11char_traitsIcESaIcEEES8_S8_RKNS_8SmartPtrINS_18RegisteredCategoryEEEib(ptr noundef nonnull align 8 dereferenceable(220) %13, ptr noundef nonnull align 8 dereferenceable(32) %1, ptr noundef nonnull align 8 dereferenceable(32) %2, ptr noundef nonnull align 8 dereferenceable(32) %8, ptr noundef nonnull align 8 dereferenceable(8) %14, i32 noundef %16, i1 noundef zeroext %9)
          to label %18 unwind label %46

18:                                               ; preds = %10
  %19 = getelementptr inbounds nuw i8, ptr %13, i64 8
  %20 = load i32, ptr %19, align 8, !tbaa !59
  %21 = add nsw i32 %20, 1
  store i32 %21, ptr %19, align 8, !tbaa !59
  store ptr %13, ptr %11, align 8, !tbaa !80
  call void @llvm.lifetime.start.p0(i64 4, ptr nonnull %12) #23
  store i32 2, ptr %12, align 4, !tbaa !96
  %22 = load ptr, ptr %13, align 8, !tbaa !32
  %23 = getelementptr inbounds nuw i8, ptr %22, i64 80
  %24 = load ptr, ptr %23, align 8
  invoke void %24(ptr noundef nonnull align 8 dereferenceable(220) %13, ptr noundef nonnull align 4 dereferenceable(4) %12)
          to label %25 unwind label %50

25:                                               ; preds = %18
  call void @llvm.lifetime.end.p0(i64 4, ptr nonnull %12) #23
  %26 = load ptr, ptr %13, align 8, !tbaa !32
  %27 = getelementptr inbounds nuw i8, ptr %26, i64 264
  %28 = load ptr, ptr %27, align 8
  invoke void %28(ptr noundef nonnull align 8 dereferenceable(220) %13, ptr noundef nonnull align 8 dereferenceable(32) %3)
          to label %29 unwind label %48

29:                                               ; preds = %25
  %30 = load ptr, ptr %13, align 8, !tbaa !32
  %31 = getelementptr inbounds nuw i8, ptr %30, i64 208
  %32 = load ptr, ptr %31, align 8
  invoke void %32(ptr noundef nonnull align 8 dereferenceable(220) %13, ptr noundef nonnull align 8 dereferenceable(32) %4, ptr noundef nonnull align 8 dereferenceable(32) %5)
          to label %33 unwind label %48

33:                                               ; preds = %29
  %34 = load ptr, ptr %13, align 8, !tbaa !32
  %35 = getelementptr inbounds nuw i8, ptr %34, i64 208
  %36 = load ptr, ptr %35, align 8
  invoke void %36(ptr noundef nonnull align 8 dereferenceable(220) %13, ptr noundef nonnull align 8 dereferenceable(32) %6, ptr noundef nonnull align 8 dereferenceable(32) %7)
          to label %37 unwind label %48

37:                                               ; preds = %33
  invoke void @_ZN5Ipopt17RegisteredOptions9AddOptionERKNS_8SmartPtrINS_16RegisteredOptionEEE(ptr noundef nonnull align 8 dereferenceable(128) %0, ptr noundef nonnull align 8 dereferenceable(8) %11)
          to label %38 unwind label %48

38:                                               ; preds = %37
  %39 = load i32, ptr %19, align 8, !tbaa !59
  %40 = add nsw i32 %39, -1
  store i32 %40, ptr %19, align 8, !tbaa !59
  %41 = icmp eq i32 %40, 0
  br i1 %41, label %42, label %_ZN5Ipopt8SmartPtrINS_16RegisteredOptionEED2Ev.exit

42:                                               ; preds = %38
  %43 = load ptr, ptr %13, align 8, !tbaa !32
  %44 = getelementptr inbounds nuw i8, ptr %43, i64 8
  %45 = load ptr, ptr %44, align 8
  call void %45(ptr noundef nonnull align 8 dereferenceable(220) %13) #23
  br label %_ZN5Ipopt8SmartPtrINS_16RegisteredOptionEED2Ev.exit

_ZN5Ipopt8SmartPtrINS_16RegisteredOptionEED2Ev.exit: ; preds = %38, %42
  call void @llvm.lifetime.end.p0(i64 8, ptr nonnull %11) #23
  ret void

46:                                               ; preds = %10
  %47 = landingpad { ptr, i32 }
          cleanup
  tail call void @_ZdlPvm(ptr noundef nonnull %13, i64 noundef 224) #24
  br label %_ZN5Ipopt8SmartPtrINS_16RegisteredOptionEED2Ev.exit16

48:                                               ; preds = %37, %33, %29, %25
  %49 = landingpad { ptr, i32 }
          cleanup
  br label %52

50:                                               ; preds = %18
  %51 = landingpad { ptr, i32 }
          cleanup
  call void @llvm.lifetime.end.p0(i64 4, ptr nonnull %12) #23
  br label %52

52:                                               ; preds = %48, %50
  %.pn = phi { ptr, i32 } [ %49, %48 ], [ %51, %50 ]
  %53 = load i32, ptr %19, align 8, !tbaa !59
  %54 = add nsw i32 %53, -1
  store i32 %54, ptr %19, align 8, !tbaa !59
  %55 = icmp eq i32 %54, 0
  br i1 %55, label %56, label %_ZN5Ipopt8SmartPtrINS_16RegisteredOptionEED2Ev.exit16

56:                                               ; preds = %52
  %57 = load ptr, ptr %13, align 8, !tbaa !32
  %58 = getelementptr inbounds nuw i8, ptr %57, i64 8
  %59 = load ptr, ptr %58, align 8
  call void %59(ptr noundef nonnull align 8 dereferenceable(220) %13) #23
  br label %_ZN5Ipopt8SmartPtrINS_16RegisteredOptionEED2Ev.exit16

_ZN5Ipopt8SmartPtrINS_16RegisteredOptionEED2Ev.exit16: ; preds = %56, %52, %46
  %.pn.pn = phi { ptr, i32 } [ %47, %46 ], [ %.pn, %52 ], [ %.pn, %56 ]
  call void @llvm.lifetime.end.p0(i64 8, ptr nonnull %11) #23
  resume { ptr, i32 } %.pn.pn
}